target datalayout = "e-m:e-p270:32:32-p271:32:32-p272:64:64-i64:64-i128:128-f80:128-n8:16:32:64-S128"
target triple = "x86_64-pc-linux-gnu"

%"struct.nix::FileSystemObjectSink" = type { ptr }
%"struct.nix::NullFileSystemObjectSink" = type { %"struct.nix::FileSystemObjectSink" }
%"struct.nix::TeeSource" = type { %"struct.nix::Source", ptr, ptr }
%"struct.nix::Source" = type { ptr }

@_ZTVN3nix24NullFileSystemObjectSinkE = external unnamed_addr constant { [7 x ptr] }, align 8
@_ZTVN3nix9TeeSourceE = linkonce_odr unnamed_addr constant { [6 x ptr] } { [6 x ptr] [ptr null, ptr @_ZTIN3nix9TeeSourceE, ptr @_ZN3nix9TeeSourceD2Ev, ptr @_ZN3nix9TeeSourceD0Ev, ptr @_ZN3nix9TeeSource4readEPcm, ptr @_ZN3nix6Source4goodEv] }, comdat, align 8
@_ZTVN3nix6SourceE = linkonce_odr unnamed_addr constant { [6 x ptr] } { [6 x ptr] [ptr null, ptr @_ZTIN3nix6SourceE, ptr @_ZN3nix6SourceD2Ev, ptr @_ZN3nix6SourceD0Ev, ptr @__cxa_pure_virtual, ptr @_ZN3nix6Source4goodEv] }, comdat, align 8

; Function Attrs: mustprogress nounwind uwtable
define linkonce_odr void @_ZN3nix6SourceD2Ev(ptr noundef nonnull align 8 dereferenceable(8) %0) unnamed_addr #2 comdat align 2 {
  %2 = alloca ptr, align 8
  store ptr %0, ptr %2, align 8
  ret void
}

; Function Attrs: mustprogress nounwind uwtable
define linkonce_odr void @_ZN3nix6SourceC2Ev(ptr noundef nonnull align 8 dereferenceable(8) %0) unnamed_addr #2 comdat align 2 {
  %2 = alloca ptr, align 8
  store ptr %0, ptr %2, align 8
  %3 = load ptr, ptr %2, align 8
  store ptr getelementptr inbounds ({ [6 x ptr] }, ptr @_ZTVN3nix6SourceE, i32 0, i32 0, i32 2), ptr %3, align 8
  ret void
}

; Function Attrs: mustprogress nounwind uwtable
define linkonce_odr void @_ZN3nix20FileSystemObjectSinkC2Ev(ptr noundef nonnull align 8 dereferenceable(8) %0) unnamed_addr #2 comdat align 2 {
  %2 = alloca ptr, align 8
  store ptr %0, ptr %2, align 8
  %3 = load ptr, ptr %2, align 8
  store ptr getelementptr inbounds ({ [7 x ptr] }, ptr @_ZTVN3nix20FileSystemObjectSinkE, i32 0, i32 0, i32 2), ptr %3, align 8
  ret void
}

; Function Attrs: mustprogress nounwind uwtable
define linkonce_odr void @_ZN3nix9TeeSourceD2Ev(ptr noundef nonnull align 8 dereferenceable(24) %0) unnamed_addr #2 comdat align 2 {
  %2 = alloca ptr, align 8
  store ptr %0, ptr %2, align 8
  %3 = load ptr, ptr %2, align 8
  call void @_ZN3nix6SourceD2Ev(ptr noundef nonnull align 8 dereferenceable(8) %3) #1
  ret void
}

; Function Attrs: mustprogress nounwind uwtable
define linkonce_odr void @_ZN3nix9TeeSourceC2ERNS_6SourceERNS_4SinkE(ptr noundef nonnull align 8 dereferenceable(24) %0, ptr noundef nonnull align 8 dereferenceable(8) %1, ptr noundef nonnull align 8 dereferenceable(8) %2) unnamed_addr #2 comdat align 2 {
  %4 = alloca ptr, align 8
  %5 = alloca ptr, align 8
  %6 = alloca ptr, align 8
  store ptr %0, ptr %4, align 8
  store ptr %1, ptr %5, align 8
  store ptr %2, ptr %6, align 8
  %7 = load ptr, ptr %4, align 8
  call void @_ZN3nix6SourceC2Ev(ptr noundef nonnull align 8 dereferenceable(8) %7) #1
  store ptr getelementptr inbounds ({ [6 x ptr] }, ptr @_ZTVN3nix9TeeSourceE, i32 0, i32 0, i32 2), ptr %7, align 8
  %8 = getelementptr inbounds %"struct.nix::TeeSource", ptr %7, i32 0, i32 1
  %9 = load ptr, ptr %5, align 8
  store ptr %9, ptr %8, align 8
  %10 = getelementptr inbounds %"struct.nix::TeeSource", ptr %7, i32 0, i32 2
  %11 = load ptr, ptr %6, align 8
  store ptr %11, ptr %10, align 8
  ret void
}

; Function Attrs: mustprogress nounwind uwtable
define linkonce_odr void @_ZN3nix24NullFileSystemObjectSinkC2Ev(ptr noundef nonnull align 8 dereferenceable(8) %0) unnamed_addr #2 comdat align 2 {
  %2 = alloca ptr, align 8
  store ptr %0, ptr %2, align 8
  %3 = load ptr, ptr %2, align 8
  call void @_ZN3nix20FileSystemObjectSinkC2Ev(ptr noundef nonnull align 8 dereferenceable(8) %3) #1
  store ptr getelementptr inbounds ({ [7 x ptr] }, ptr @_ZTVN3nix24NullFileSystemObjectSinkE, i32 0, i32 0, i32 2), ptr %3, align 8
  ret void
}

; Function Attrs: mustprogress uwtable
define void @_ZN3nix7copyNARERNS_6SourceERNS_4SinkE(ptr noundef nonnull align 8 dereferenceable(8) %0, ptr noundef nonnull align 8 dereferenceable(8) %1) #5 personality ptr @__gxx_personality_v0 {
  %3 = alloca ptr, align 8
  %4 = alloca ptr, align 8
  %5 = alloca %"struct.nix::NullFileSystemObjectSink", align 8
  %6 = alloca %"struct.nix::TeeSource", align 8
  %7 = alloca ptr, align 8
  %8 = alloca i32, align 4
  store ptr %0, ptr %3, align 8
  store ptr %1, ptr %4, align 8
  call void @_ZN3nix24NullFileSystemObjectSinkC2Ev(ptr noundef nonnull align 8 dereferenceable(8) %5) #1
  %9 = load ptr, ptr %3, align 8
  %10 = load ptr, ptr %4, align 8
  call void @_ZN3nix9TeeSourceC2ERNS_6SourceERNS_4SinkE(ptr noundef nonnull align 8 dereferenceable(24) %6, ptr noundef nonnull align 8 dereferenceable(8) %9, ptr noundef nonnull align 8 dereferenceable(8) %10)
  invoke void @_ZN3nix9parseDumpERNS_20FileSystemObjectSinkERNS_6SourceE(ptr noundef nonnull align 8 dereferenceable(8) %5, ptr noundef nonnull align 8 dereferenceable(8) %6)
          to label %11 unwind label %12

11:                                               ; preds = %2
  call void @_ZN3nix9TeeSourceD2Ev(ptr noundef nonnull align 8 dereferenceable(24) %6) #1
  ret void

12:                                               ; preds = %2
  %13 = landingpad { ptr, i32 }
          cleanup
  %14 = extractvalue { ptr, i32 } %13, 0
  store ptr %14, ptr %7, align 8
  %15 = extractvalue { ptr, i32 } %13, 1
  store i32 %15, ptr %8, align 4
  call void @_ZN3nix9TeeSourceD2Ev(ptr noundef nonnull align 8 dereferenceable(24) %6) #1
  br label %16

16:                                               ; preds = %12
  %17 = load ptr, ptr %7, align 8
  %18 = load i32, ptr %8, align 4
  %19 = insertvalue { ptr, i32 } poison, ptr %17, 0
  %20 = insertvalue { ptr, i32 } %19, i32 %18, 1
  resume { ptr, i32 } %20
}