; Function Attrs: mustprogress uwtable
define void @_ZN3nix7copyNARERNS_6SourceERNS_4SinkE(ptr noundef nonnull align 8 dereferenceable(8) %0, ptr noundef nonnull align 8 dereferenceable(8) %1) local_unnamed_addr #4 personality ptr @__gxx_personality_v0 {
  %3 = alloca %"struct.nix::NullFileSystemObjectSink", align 8
  %4 = alloca %"struct.nix::TeeSource", align 8
  store ptr getelementptr inbounds ({ [7 x ptr] }, ptr @_ZTVN3nix24NullFileSystemObjectSinkE, i64 0, i32 0, i64 2), ptr %3, align 8
  store ptr getelementptr inbounds ({ [6 x ptr] }, ptr @_ZTVN3nix9TeeSourceE, i64 0, i32 0, i64 2), ptr %4, align 8
  %5 = getelementptr inbounds i8, ptr %4, i64 8
  store ptr %0, ptr %5, align 8
  %6 = getelementptr inbounds i8, ptr %4, i64 16
  store ptr %1, ptr %6, align 8
  call void @_ZN3nix9parseDumpERNS_20FileSystemObjectSinkERNS_6SourceE(ptr noundef nonnull align 8 dereferenceable(8) %3, ptr noundef nonnull align 8 dereferenceable(8) %4)
  ret void
}